target datalayout = "e-m:e-p270:32:32-p271:32:32-p272:64:64-i64:64-i128:128-f80:128-n8:16:32:64-S128"
target triple = "x86_64-pc-linux-gnu"

@.str.126 = private unnamed_addr constant [29 x i8] c"Real Time Messaging Protocol\00", align 1
@.str.127 = private unnamed_addr constant [6 x i8] c"RTMPT\00", align 1
@.str.128 = private unnamed_addr constant [6 x i8] c"rtmpt\00", align 1
@proto_rtmpt = internal global i32 0, align 4
@.str.129 = private unnamed_addr constant [10 x i8] c"rtmpt.tcp\00", align 1
@rtmpt_tcp_handle = internal global ptr null, align 8
@.str.130 = private unnamed_addr constant [11 x i8] c"rtmpt.http\00", align 1
@rtmpt_http_handle = internal global ptr null, align 8
@.str.131 = private unnamed_addr constant [10 x i8] c"desegment\00", align 1
@.str.132 = private unnamed_addr constant [57 x i8] c"Reassemble RTMPT messages spanning multiple TCP segments\00", align 1
@.str.133 = private unnamed_addr constant [206 x i8] c"Whether the RTMPT dissector should reassemble messages spanning multiple TCP segments. To use this option, you must also enable \22Allow subdissectors to reassemble TCP streams\22 in the TCP protocol settings.\00", align 1
@rtmpt_desegment = internal global i8 1, align 1
@.str.134 = private unnamed_addr constant [16 x i8] c"max_packet_size\00", align 1
@.str.135 = private unnamed_addr constant [19 x i8] c"default_chunk_size\00", align 1
@.str.136 = private unnamed_addr constant [19 x i8] c"Default chunk size\00", align 1
@.str.137 = private unnamed_addr constant [141 x i8] c"Chunk size to use for connections where the initial handshake is missing, i.e. are already in progress at the beginning of the capture file.\00", align 1
@rtmpt_default_chunk_size = internal global i32 128, align 4

; Function Attrs: null_pointer_is_valid sspstrong uwtable
define hidden void @proto_register_rtmpt() #0 {
  %1 = alloca ptr, align 8
  call void @llvm.lifetime.start.p0(i64 8, ptr %1) #12
  %2 = call i32 @proto_register_protocol(ptr noundef @.str.126, ptr noundef @.str.127, ptr noundef @.str.128)
  store i32 %2, ptr @proto_rtmpt, align 4
  %3 = load i32, ptr @proto_rtmpt, align 4
  call void @proto_register_field_array(i32 noundef %3, ptr noundef @proto_register_rtmpt.hf, i32 noundef 55)
  call void @proto_register_subtree_array(ptr noundef @proto_register_rtmpt.ett, i32 noundef 13)
  %4 = load i32, ptr @proto_rtmpt, align 4
  %5 = call ptr @register_dissector(ptr noundef @.str.129, ptr noundef @dissect_rtmpt_tcp, i32 noundef %4)
  store ptr %5, ptr @rtmpt_tcp_handle, align 8
  %6 = load i32, ptr @proto_rtmpt, align 4
  %7 = call ptr @register_dissector(ptr noundef @.str.130, ptr noundef @dissect_rtmpt_http, i32 noundef %6)
  store ptr %7, ptr @rtmpt_http_handle, align 8
  %8 = load i32, ptr @proto_rtmpt, align 4
  %9 = call ptr @prefs_register_protocol(i32 noundef %8, ptr noundef null)
  store ptr %9, ptr %1, align 8
  %10 = load ptr, ptr %1, align 8
  call void @prefs_register_bool_preference(ptr noundef %10, ptr noundef @.str.131, ptr noundef @.str.132, ptr noundef @.str.133, ptr noundef @rtmpt_desegment)
  %11 = load ptr, ptr %1, align 8
  call void @prefs_register_obsolete_preference(ptr noundef %11, ptr noundef @.str.134)
  %12 = load ptr, ptr %1, align 8
  call void @prefs_register_uint_preference(ptr noundef %12, ptr noundef @.str.135, ptr noundef @.str.136, ptr noundef @.str.137, i32 noundef 10, ptr noundef @rtmpt_default_chunk_size)
  call void @llvm.lifetime.end.p0(i64 8, ptr %1) #12
  ret void
}