; Function Attrs: null_pointer_is_valid sspstrong uwtable
define hidden void @proto_register_rtmpt() local_unnamed_addr #0 {
  %1 = tail call i32 @proto_register_protocol(ptr noundef nonnull @.str.126, ptr noundef nonnull @.str.127, ptr noundef nonnull @.str.128)
  store i32 %1, ptr @proto_rtmpt, align 4
  tail call void @proto_register_field_array(i32 noundef %1, ptr noundef nonnull @proto_register_rtmpt.hf, i32 noundef 55)
  tail call void @proto_register_subtree_array(ptr noundef nonnull @proto_register_rtmpt.ett, i32 noundef 13)
  %2 = load i32, ptr @proto_rtmpt, align 4
  %3 = tail call ptr @register_dissector(ptr noundef nonnull @.str.129, ptr noundef nonnull @dissect_rtmpt_tcp, i32 noundef %2)
  store ptr %3, ptr @rtmpt_tcp_handle, align 8
  %4 = load i32, ptr @proto_rtmpt, align 4
  %5 = tail call ptr @register_dissector(ptr noundef nonnull @.str.130, ptr noundef nonnull @dissect_rtmpt_http, i32 noundef %4)
  store ptr %5, ptr @rtmpt_http_handle, align 8
  %6 = load i32, ptr @proto_rtmpt, align 4
  %7 = tail call ptr @prefs_register_protocol(i32 noundef %6, ptr noundef null)
  tail call void @prefs_register_bool_preference(ptr noundef %7, ptr noundef nonnull @.str.131, ptr noundef nonnull @.str.132, ptr noundef nonnull @.str.133, ptr noundef nonnull @rtmpt_desegment)
  tail call void @prefs_register_obsolete_preference(ptr noundef %7, ptr noundef nonnull @.str.134)
  tail call void @prefs_register_uint_preference(ptr noundef %7, ptr noundef nonnull @.str.135, ptr noundef nonnull @.str.136, ptr noundef nonnull @.str.137, i32 noundef 10, ptr noundef nonnull @rtmpt_default_chunk_size)
  ret void
}